; Function Attrs: mustprogress nofree norecurse nosync nounwind willreturn memory(read, inaccessiblemem: none) uwtable
define dso_local noundef zeroext range(i8 0, 32) i8 @_ZN5clang17computeDependenceEPNS_23MSPropertySubscriptExprE(ptr noundef readonly captures(none) %0) local_unnamed_addr #0 {
  %2 = getelementptr inbounds nuw i8, ptr %0, i64 24
  %3 = load ptr, ptr %2, align 8
  %4 = getelementptr inbounds nuw i8, ptr %3, i64 1
  %5 = load i16, ptr %4, align 1
  %6 = lshr i16 %5, 5
  %7 = trunc i16 %6 to i8
  %8 = and i8 %7, 31
  ret i8 %8
}